target datalayout = "e-m:e-p270:32:32-p271:32:32-p272:64:64-i64:64-i128:128-f80:128-n8:16:32:64-S128"
target triple = "x86_64-pc-linux-gnu"

@.str.1 = private unnamed_addr constant [5 x i8] c"TRUE\00", align 1
@.str.2 = private unnamed_addr constant [6 x i8] c"FALSE\00", align 1

; Function Attrs: nounwind uwtable
define i32 @X509V3_add_value(ptr noundef %0, ptr noundef %1, ptr noundef %2) #0 {
  %4 = alloca ptr, align 8
  %5 = alloca ptr, align 8
  %6 = alloca ptr, align 8
  store ptr %0, ptr %4, align 8, !tbaa !3
  store ptr %1, ptr %5, align 8, !tbaa !3
  store ptr %2, ptr %6, align 8, !tbaa !8
  %7 = load ptr, ptr %4, align 8, !tbaa !3
  %8 = load ptr, ptr %5, align 8, !tbaa !3
  %9 = load ptr, ptr %5, align 8, !tbaa !3
  %10 = icmp ne ptr %9, null
  br i1 %10, label %11, label %14

11:                                               ; preds = %3
  %12 = load ptr, ptr %5, align 8, !tbaa !3
  %13 = call i64 @strlen(ptr noundef %12) #7
  br label %15

14:                                               ; preds = %3
  br label %15

15:                                               ; preds = %14, %11
  %16 = phi i64 [ %13, %11 ], [ 0, %14 ]
  %17 = load ptr, ptr %6, align 8, !tbaa !8
  %18 = call i32 @x509v3_add_len_value(ptr noundef %7, ptr noundef %8, i64 noundef %16, ptr noundef %17)
  ret i32 %18
}

; Function Attrs: nounwind uwtable
define i32 @X509V3_add_value_bool(ptr noundef %0, i32 noundef %1, ptr noundef %2) #0 {
  %4 = alloca i32, align 4
  %5 = alloca ptr, align 8
  %6 = alloca i32, align 4
  %7 = alloca ptr, align 8
  store ptr %0, ptr %5, align 8, !tbaa !3
  store i32 %1, ptr %6, align 4, !tbaa !15
  store ptr %2, ptr %7, align 8, !tbaa !8
  %8 = load i32, ptr %6, align 4, !tbaa !15
  %9 = icmp ne i32 %8, 0
  br i1 %9, label %10, label %14

10:                                               ; preds = %3
  %11 = load ptr, ptr %5, align 8, !tbaa !3
  %12 = load ptr, ptr %7, align 8, !tbaa !8
  %13 = call i32 @X509V3_add_value(ptr noundef %11, ptr noundef @.str.1, ptr noundef %12)
  store i32 %13, ptr %4, align 4
  br label %18

14:                                               ; preds = %3
  %15 = load ptr, ptr %5, align 8, !tbaa !3
  %16 = load ptr, ptr %7, align 8, !tbaa !8
  %17 = call i32 @X509V3_add_value(ptr noundef %15, ptr noundef @.str.2, ptr noundef %16)
  store i32 %17, ptr %4, align 4
  br label %18

18:                                               ; preds = %14, %10
  %19 = load i32, ptr %4, align 4
  ret i32 %19
}