; Function Attrs: nounwind uwtable
define range(i32 0, 2) i32 @X509V3_add_value_bool(ptr noundef %0, i32 noundef %1, ptr noundef captures(none) %2) local_unnamed_addr #0 {
  %.not = icmp eq i32 %1, 0
  br i1 %.not, label %6, label %4

4:                                                ; preds = %3
  %5 = tail call fastcc i32 @x509v3_add_len_value(ptr noundef %0, ptr noundef nonnull @.str.1, i64 noundef 4, ptr noundef %2)
  br label %8

6:                                                ; preds = %3
  %7 = tail call fastcc i32 @x509v3_add_len_value(ptr noundef %0, ptr noundef nonnull @.str.2, i64 noundef 5, ptr noundef %2)
  br label %8

8:                                                ; preds = %6, %4
  %.0 = phi i32 [ %5, %4 ], [ %7, %6 ]
  ret i32 %.0
}